target datalayout = "e-m:e-p270:32:32-p271:32:32-p272:64:64-i64:64-i128:128-f80:128-n8:16:32:64-S128"
target triple = "x86_64-unknown-linux-gnu"

%"class.icu_75::numparse::impl::NumberParseMatcher" = type { ptr }
%"class.icu_75::numparse::impl::CodePointMatcher" = type <{ %"class.icu_75::numparse::impl::NumberParseMatcher", i32, [4 x i8] }>

; Function Attrs: mustprogress uwtable
define noundef zeroext i1 @_ZNK6icu_758numparse4impl16CodePointMatcher5matchERNS_13StringSegmentERNS1_12ParsedNumberER10UErrorCode(ptr noundef nonnull align 8 dereferenceable(12) %this, ptr noundef nonnull align 8 dereferenceable(17) %segment, ptr noundef nonnull align 8 dereferenceable(216) %result, ptr noundef nonnull align 4 dereferenceable(4) %0) unnamed_addr #1 align 2 {
entry:
  %this.addr = alloca ptr, align 8
  %segment.addr = alloca ptr, align 8
  %result.addr = alloca ptr, align 8
  %.addr = alloca ptr, align 8
  store ptr %this, ptr %this.addr, align 8
  store ptr %segment, ptr %segment.addr, align 8
  store ptr %result, ptr %result.addr, align 8
  store ptr %0, ptr %.addr, align 8
  %this1 = load ptr, ptr %this.addr, align 8
  %1 = load ptr, ptr %segment.addr, align 8
  %fCp = getelementptr inbounds %"class.icu_75::numparse::impl::CodePointMatcher", ptr %this1, i32 0, i32 1
  %2 = load i32, ptr %fCp, align 8
  %call = call noundef zeroext i1 @_ZNK6icu_7513StringSegment10startsWithEi(ptr noundef nonnull align 8 dereferenceable(17) %1, i32 noundef %2)
  br i1 %call, label %if.then, label %if.end

if.then:                                          ; preds = %entry
  %3 = load ptr, ptr %segment.addr, align 8
  call void @_ZN6icu_7513StringSegment23adjustOffsetByCodePointEv(ptr noundef nonnull align 8 dereferenceable(17) %3)
  %4 = load ptr, ptr %result.addr, align 8
  %5 = load ptr, ptr %segment.addr, align 8
  call void @_ZN6icu_758numparse4impl12ParsedNumber16setCharsConsumedERKNS_13StringSegmentE(ptr noundef nonnull align 8 dereferenceable(216) %4, ptr noundef nonnull align 8 dereferenceable(17) %5)
  br label %if.end

if.end:                                           ; preds = %if.then, %entry
  ret i1 false
}