; Function Attrs: mustprogress uwtable
define noundef zeroext i1 @_ZNK6icu_758numparse4impl16CodePointMatcher5matchERNS_13StringSegmentERNS1_12ParsedNumberER10UErrorCode(ptr nocapture noundef nonnull readonly align 8 dereferenceable(12) %this, ptr noundef nonnull align 8 dereferenceable(17) %segment, ptr noundef nonnull align 8 dereferenceable(216) %result, ptr nocapture nonnull readnone align 4 %0) unnamed_addr #1 align 2 {
entry:
  %fCp = getelementptr inbounds i8, ptr %this, i64 8
  %1 = load i32, ptr %fCp, align 8
  %call = tail call noundef zeroext i1 @_ZNK6icu_7513StringSegment10startsWithEi(ptr noundef nonnull align 8 dereferenceable(17) %segment, i32 noundef %1)
  br i1 %call, label %if.then, label %if.end

if.then:                                          ; preds = %entry
  tail call void @_ZN6icu_7513StringSegment23adjustOffsetByCodePointEv(ptr noundef nonnull align 8 dereferenceable(17) %segment)
  tail call void @_ZN6icu_758numparse4impl12ParsedNumber16setCharsConsumedERKNS_13StringSegmentE(ptr noundef nonnull align 8 dereferenceable(216) %result, ptr noundef nonnull align 8 dereferenceable(17) %segment)
  br label %if.end

if.end:                                           ; preds = %if.then, %entry
  ret i1 false
}